target datalayout = "e-m:e-p270:32:32-p271:32:32-p272:64:64-i64:64-i128:128-f80:128-n8:16:32:64-S128"
target triple = "x86_64-pc-linux-gnu"

%struct.CVodeMemRec = type { ptr, double, ptr, ptr, i32, i32, double, double, ptr, i32, i32, ptr, ptr, i32, [13 x ptr], ptr, ptr, ptr, ptr, ptr, ptr, ptr, ptr, ptr, i32, i32, double, i32, i32, i32, i32, i32, double, double, double, double, double, double, double, double, [14 x double], [6 x double], [13 x double], double, double, double, double, double, double, double, i32, double, i32, i64, i32, i32, i32, double, double, double, double, double, double, double, double, double, double, double, double, i64, i32, i64, i64, i64, i64, i64, i64, i64, i32, double, double, double, i64, i64, i64, i64, ptr, i32, ptr, i32, ptr, ptr, ptr, ptr, ptr, i64, double, i32, i64, double, double, double, i32, double, i32, i32, i32, i32, i32, ptr, i64, i32, [6 x [4 x double]], i32, i64, ptr, i32, ptr, ptr, double, double, double, ptr, ptr, ptr, double, double, i32, i32, i64, ptr, i32, ptr, i32, i32, [13 x double], [13 x double], [13 x ptr], i32 }

@.str = private unnamed_addr constant [116 x i8] c"generated/home/dtcxzyw/WorkSpace/Projects/compilers/llvm-opt-benchmark/bench/sundials/sundials/src/cvode/cvode_io.c\00", align 1
@.str.1 = private unnamed_addr constant [26 x i8] c"cvode_mem = NULL illegal.\00", align 1
@__func__.CVodeSetEtaMax = private unnamed_addr constant [15 x i8] c"CVodeSetEtaMax\00", align 1

; Function Attrs: nounwind uwtable
define i32 @CVodeSetEtaMax(ptr noundef %0, double noundef %1) #0 {
  %3 = alloca i32, align 4
  %4 = alloca ptr, align 8
  %5 = alloca double, align 8
  %6 = alloca ptr, align 8
  store ptr %0, ptr %4, align 8
  store double %1, ptr %5, align 8
  %7 = load ptr, ptr %4, align 8
  %8 = icmp eq ptr %7, null
  br i1 %8, label %9, label %10

9:                                                ; preds = %2
  call void (ptr, i32, i32, ptr, ptr, ptr, ...) @cvProcessError(ptr noundef null, i32 noundef -21, i32 noundef 502, ptr noundef @__func__.CVodeSetEtaMax, ptr noundef @.str, ptr noundef @.str.1)
  store i32 -21, ptr %3, align 4
  br label %22

10:                                               ; preds = %2
  %11 = load ptr, ptr %4, align 8
  store ptr %11, ptr %6, align 8
  %12 = load double, ptr %5, align 8
  %13 = fcmp ole double %12, 1.000000e+00
  br i1 %13, label %14, label %17

14:                                               ; preds = %10
  %15 = load ptr, ptr %6, align 8
  %16 = getelementptr inbounds %struct.CVodeMemRec, ptr %15, i32 0, i32 64
  store double 1.000000e+01, ptr %16, align 8
  br label %21

17:                                               ; preds = %10
  %18 = load double, ptr %5, align 8
  %19 = load ptr, ptr %6, align 8
  %20 = getelementptr inbounds %struct.CVodeMemRec, ptr %19, i32 0, i32 64
  store double %18, ptr %20, align 8
  br label %21

21:                                               ; preds = %17, %14
  store i32 0, ptr %3, align 4
  br label %22

22:                                               ; preds = %21, %9
  %23 = load i32, ptr %3, align 4
  ret i32 %23
}